target datalayout = "e-m:e-p270:32:32-p271:32:32-p272:64:64-i64:64-i128:128-f80:128-n8:16:32:64-S128"
target triple = "x86_64-pc-linux-gnu"

%struct._object = type { %union.anon.26, ptr }
%union.anon.26 = type { i64 }
%struct.PyCompilerFlags = type { i32, i32 }
%struct._PyCompiler = type { ptr, ptr, %struct._PyFutureFeatures, %struct.PyCompilerFlags, i32, i32, ptr, ptr, ptr, i8 }
%struct._PyFutureFeatures = type { i32, %struct._Py_SourceLocation }
%struct._Py_SourceLocation = type { i32, i32, i32, i32 }
%struct.anon.27 = type { i32, i32 }
%struct.__va_list_tag = type { i32, i32, ptr, ptr }

; Function Attrs: alwaysinline nounwind uwtable
define internal i32 @_Py_IsImmortal(ptr noundef %0) #4 {
  %2 = alloca ptr, align 8
  store ptr %0, ptr %2, align 8, !tbaa !32
  %3 = load ptr, ptr %2, align 8, !tbaa !32
  %4 = getelementptr inbounds nuw %struct._object, ptr %3, i32 0, i32 0
  %5 = getelementptr inbounds nuw %struct.anon.27, ptr %4, i32 0, i32 0
  %6 = load i32, ptr %5, align 8, !tbaa !11
  %7 = icmp slt i32 %6, 0
  %8 = zext i1 %7 to i32
  ret i32 %8
}

; Function Attrs: alwaysinline nounwind uwtable
define internal void @Py_DECREF(ptr noundef %0) #4 {
  %2 = alloca ptr, align 8
  store ptr %0, ptr %2, align 8, !tbaa !32
  %3 = load ptr, ptr %2, align 8, !tbaa !32
  %4 = call i32 @_Py_IsImmortal(ptr noundef %3)
  %5 = icmp ne i32 %4, 0
  br i1 %5, label %6, label %7

6:                                                ; preds = %1
  br label %16

7:                                                ; preds = %1
  %8 = load ptr, ptr %2, align 8, !tbaa !32
  %9 = getelementptr inbounds nuw %struct._object, ptr %8, i32 0, i32 0
  %10 = getelementptr inbounds nuw %struct.anon.27, ptr %9, i32 0, i32 0
  %11 = load i32, ptr %10, align 8, !tbaa !11
  %12 = add i32 %11, -1
  store i32 %12, ptr %10, align 8, !tbaa !11
  %13 = icmp eq i32 %12, 0
  br i1 %13, label %14, label %16

14:                                               ; preds = %7
  %15 = load ptr, ptr %2, align 8, !tbaa !32
  call void @_Py_Dealloc(ptr noundef %15)
  br label %16

16:                                               ; preds = %6, %14, %7
  ret void
}

; Function Attrs: nounwind uwtable
define hidden i32 @_PyCompile_Warn(ptr noundef %0, i64 %1, i64 %2, ptr noundef %3, ...) #0 {
  %5 = alloca i32, align 4
  %6 = alloca %struct._Py_SourceLocation, align 4
  %7 = alloca ptr, align 8
  %8 = alloca ptr, align 8
  %9 = alloca [1 x %struct.__va_list_tag], align 16
  %10 = alloca ptr, align 8
  %11 = alloca i32, align 4
  %12 = alloca i32, align 4
  %13 = getelementptr inbounds nuw { i64, i64 }, ptr %6, i32 0, i32 0
  store i64 %1, ptr %13, align 4
  %14 = getelementptr inbounds nuw { i64, i64 }, ptr %6, i32 0, i32 1
  store i64 %2, ptr %14, align 4
  store ptr %0, ptr %7, align 8, !tbaa !4
  store ptr %3, ptr %8, align 8, !tbaa !92
  call void @llvm.lifetime.start.p0(i64 24, ptr %9) #8
  %15 = getelementptr inbounds [1 x %struct.__va_list_tag], ptr %9, i64 0, i64 0
  call void @llvm.va_start.p0(ptr %15)
  call void @llvm.lifetime.start.p0(i64 8, ptr %10) #8
  %16 = load ptr, ptr %8, align 8, !tbaa !92
  %17 = getelementptr inbounds [1 x %struct.__va_list_tag], ptr %9, i64 0, i64 0
  %18 = call ptr @PyUnicode_FromFormatV(ptr noundef %16, ptr noundef %17)
  store ptr %18, ptr %10, align 8, !tbaa !32
  %19 = getelementptr inbounds [1 x %struct.__va_list_tag], ptr %9, i64 0, i64 0
  call void @llvm.va_end.p0(ptr %19)
  %20 = load ptr, ptr %10, align 8, !tbaa !32
  %21 = icmp eq ptr %20, null
  br i1 %21, label %22, label %23

22:                                               ; preds = %4
  store i32 -1, ptr %5, align 4
  store i32 1, ptr %11, align 4
  br label %41

23:                                               ; preds = %4
  call void @llvm.lifetime.start.p0(i64 4, ptr %12) #8
  %24 = load ptr, ptr %10, align 8, !tbaa !32
  %25 = load ptr, ptr %7, align 8, !tbaa !4
  %26 = getelementptr inbounds nuw %struct._PyCompiler, ptr %25, i32 0, i32 0
  %27 = load ptr, ptr %26, align 8, !tbaa !93
  %28 = getelementptr inbounds nuw %struct._Py_SourceLocation, ptr %6, i32 0, i32 0
  %29 = load i32, ptr %28, align 4, !tbaa !94
  %30 = getelementptr inbounds nuw %struct._Py_SourceLocation, ptr %6, i32 0, i32 2
  %31 = load i32, ptr %30, align 4, !tbaa !95
  %32 = add i32 %31, 1
  %33 = getelementptr inbounds nuw %struct._Py_SourceLocation, ptr %6, i32 0, i32 1
  %34 = load i32, ptr %33, align 4, !tbaa !96
  %35 = getelementptr inbounds nuw %struct._Py_SourceLocation, ptr %6, i32 0, i32 3
  %36 = load i32, ptr %35, align 4, !tbaa !97
  %37 = add i32 %36, 1
  %38 = call i32 @_PyErr_EmitSyntaxWarning(ptr noundef %24, ptr noundef %27, i32 noundef %29, i32 noundef %32, i32 noundef %34, i32 noundef %37)
  store i32 %38, ptr %12, align 4, !tbaa !50
  %39 = load ptr, ptr %10, align 8, !tbaa !32
  call void @Py_DECREF(ptr noundef %39)
  %40 = load i32, ptr %12, align 4, !tbaa !50
  store i32 %40, ptr %5, align 4
  store i32 1, ptr %11, align 4
  call void @llvm.lifetime.end.p0(i64 4, ptr %12) #8
  br label %41

41:                                               ; preds = %23, %22
  call void @llvm.lifetime.end.p0(i64 8, ptr %10) #8
  call void @llvm.lifetime.end.p0(i64 24, ptr %9) #8
  %42 = load i32, ptr %5, align 4
  ret i32 %42
}