; Function Attrs: nounwind uwtable
define hidden i32 @_PyCompile_Warn(ptr noundef readonly captures(none) %0, i64 %1, i64 %2, ptr noundef %3, ...) local_unnamed_addr #0 {
  %5 = alloca [1 x %struct.__va_list_tag], align 16
  call void @llvm.lifetime.start.p0(i64 24, ptr nonnull %5) #11
  call void @llvm.va_start.p0(ptr nonnull %5)
  %6 = call ptr @PyUnicode_FromFormatV(ptr noundef %3, ptr noundef nonnull %5) #11
  call void @llvm.va_end.p0(ptr nonnull %5)
  %7 = icmp eq ptr %6, null
  br i1 %7, label %Py_DECREF.exit, label %8

8:                                                ; preds = %4
  %.sroa.5.8.extract.shift = lshr i64 %2, 32
  %.sroa.5.8.extract.trunc = trunc nuw i64 %.sroa.5.8.extract.shift to i32
  %.sroa.3.8.extract.trunc = trunc i64 %2 to i32
  %.sroa.2.0.extract.shift = lshr i64 %1, 32
  %.sroa.2.0.extract.trunc = trunc nuw i64 %.sroa.2.0.extract.shift to i32
  %.sroa.0.0.extract.trunc = trunc i64 %1 to i32
  %9 = load ptr, ptr %0, align 8, !tbaa !77
  %10 = add i32 %.sroa.3.8.extract.trunc, 1
  %11 = add i32 %.sroa.5.8.extract.trunc, 1
  %12 = call i32 @_PyErr_EmitSyntaxWarning(ptr noundef nonnull %6, ptr noundef %9, i32 noundef %.sroa.0.0.extract.trunc, i32 noundef %10, i32 noundef %.sroa.2.0.extract.trunc, i32 noundef %11) #11
  %13 = load i32, ptr %6, align 8, !tbaa !4
  %.not.i = icmp sgt i32 %13, -1
  br i1 %.not.i, label %14, label %Py_DECREF.exit

14:                                               ; preds = %8
  %15 = add nsw i32 %13, -1
  store i32 %15, ptr %6, align 8, !tbaa !4
  %16 = icmp eq i32 %15, 0
  br i1 %16, label %17, label %Py_DECREF.exit

17:                                               ; preds = %14
  call void @_Py_Dealloc(ptr noundef nonnull %6) #11
  br label %Py_DECREF.exit

Py_DECREF.exit:                                   ; preds = %17, %14, %8, %4
  %.0 = phi i32 [ -1, %4 ], [ %12, %8 ], [ %12, %14 ], [ %12, %17 ]
  call void @llvm.lifetime.end.p0(i64 24, ptr nonnull %5) #11
  ret i32 %.0
}